target datalayout = "e-m:e-p270:32:32-p271:32:32-p272:64:64-i64:64-i128:128-f80:128-n8:16:32:64-S128"
target triple = "x86_64-pc-linux-gnu"

%struct.anon = type { ptr, i64, ptr, i64 }

; Function Attrs: nounwind uwtable
define hidden void @VULKAN_GetPixelShader(i32 noundef %0, ptr noundef %1, ptr noundef %2) #0 {
  %4 = alloca i32, align 4
  %5 = alloca ptr, align 8
  %6 = alloca ptr, align 8
  store i32 %0, ptr %4, align 4
  store ptr %1, ptr %5, align 8
  store ptr %2, ptr %6, align 8
  %7 = load i32, ptr %4, align 4
  %8 = zext i32 %7 to i64
  %9 = getelementptr inbounds nuw [3 x %struct.anon], ptr @VULKAN_shaders, i64 0, i64 %8
  %10 = getelementptr inbounds nuw %struct.anon, ptr %9, i32 0, i32 0
  %11 = load ptr, ptr %10, align 16
  %12 = load ptr, ptr %5, align 8
  store ptr %11, ptr %12, align 8
  %13 = load i32, ptr %4, align 4
  %14 = zext i32 %13 to i64
  %15 = getelementptr inbounds nuw [3 x %struct.anon], ptr @VULKAN_shaders, i64 0, i64 %14
  %16 = getelementptr inbounds nuw %struct.anon, ptr %15, i32 0, i32 1
  %17 = load i64, ptr %16, align 8
  %18 = load ptr, ptr %6, align 8
  store i64 %17, ptr %18, align 8
  ret void
}