; Function Attrs: mustprogress nofree norecurse nosync nounwind willreturn memory(argmem: write) uwtable
define hidden void @VULKAN_GetPixelShader(i32 noundef %0, ptr noundef writeonly captures(none) initializes((0, 8)) %1, ptr noundef writeonly captures(none) initializes((0, 8)) %2) local_unnamed_addr #0 {
  %4 = zext i32 %0 to i64
  %5 = getelementptr inbounds nuw [3 x %struct.anon], ptr @VULKAN_shaders, i64 0, i64 %4
  %6 = load ptr, ptr %5, align 16
  store ptr %6, ptr %1, align 8
  %7 = getelementptr inbounds nuw i8, ptr %5, i64 8
  %8 = load i64, ptr %7, align 8
  store i64 %8, ptr %2, align 8
  ret void
}